target datalayout = "e-m:e-p270:32:32-p271:32:32-p272:64:64-i64:64-i128:128-f80:128-n8:16:32:64-S128"
target triple = "x86_64-pc-linux-gnu"

%struct.stepd_step_rec_t = type { ptr, ptr, i32, %union.pthread_cond_t, %union.pthread_mutex_t, %struct.slurm_step_id_msg, i32, i32, i32, i32, i32, i32, ptr, ptr, i32, i32, ptr, i32, i32, i32, i32, i32, ptr, ptr, ptr, ptr, i32, i32, i64, i64, i16, i32, ptr, ptr, ptr, i32, ptr, i32, ptr, i32, ptr, i16, i32, i32, i32, ptr, i32, ptr, ptr, ptr, ptr, i32, i32, ptr, ptr, i8, i8, i8, i64, i32, ptr, ptr, ptr, ptr, ptr, ptr, ptr, ptr, ptr, ptr, i32, i32, ptr, i8, %union.pthread_cond_t, %union.pthread_mutex_t, i64, ptr, i32, i32, i32, ptr, i64, ptr, ptr, i8, ptr, i16, ptr, ptr, ptr, ptr, ptr, ptr, i64, ptr, i64, ptr, i16, i8, i16, i32, ptr, i16, ptr, ptr, i16, ptr, ptr, ptr, i8 }
%struct.slurm_step_id_msg = type { i64, i32, i32, i32 }
%union.pthread_cond_t = type { %struct.__pthread_cond_s }
%struct.__pthread_cond_s = type { %union.__atomic_wide_counter, %union.__atomic_wide_counter, [2 x i32], [2 x i32], i32, i32, [2 x i32] }
%union.__atomic_wide_counter = type { i64 }
%union.pthread_mutex_t = type { %struct.__pthread_mutex_s }
%struct.__pthread_mutex_s = type { i32, i32, i32, i32, i32, i16, i16, %struct.__pthread_internal_list }
%struct.__pthread_internal_list = type { ptr, ptr }

@.str.12 = private unnamed_addr constant [12 x i8] c"SLURM_UMASK\00", align 1
@.str.13 = private unnamed_addr constant [41 x i8] c"Couldn't find SLURM_UMASK in environment\00", align 1

; Function Attrs: nounwind uwtable
define dso_local i32 @set_umask(ptr noundef %0) #0 {
  %2 = alloca i32, align 4
  %3 = alloca ptr, align 8
  %4 = alloca i32, align 4
  %5 = alloca ptr, align 8
  %6 = alloca i32, align 4
  store ptr %0, ptr %3, align 8
  call void @llvm.lifetime.start.p0(i64 4, ptr %4) #5
  call void @llvm.lifetime.start.p0(i64 8, ptr %5) #5
  %7 = load ptr, ptr %3, align 8
  %8 = getelementptr inbounds nuw %struct.stepd_step_rec_t, ptr %7, i32 0, i32 32
  %9 = load ptr, ptr %8, align 8
  %10 = call ptr @getenvp(ptr noundef %9, ptr noundef @.str.12)
  store ptr %10, ptr %5, align 8
  %11 = icmp ne ptr %10, null
  br i1 %11, label %30, label %12

12:                                               ; preds = %1
  %13 = load ptr, ptr %3, align 8
  %14 = getelementptr inbounds nuw %struct.stepd_step_rec_t, ptr %13, i32 0, i32 5
  %15 = getelementptr inbounds nuw %struct.slurm_step_id_msg, ptr %14, i32 0, i32 3
  %16 = load i32, ptr %15, align 8
  %17 = icmp ne i32 %16, -4
  br i1 %17, label %18, label %29

18:                                               ; preds = %12
  br label %19

19:                                               ; preds = %18
  br label %20

20:                                               ; preds = %19
  %21 = call i32 @get_log_level()
  %22 = icmp sge i32 %21, 5
  br i1 %22, label %23, label %24

23:                                               ; preds = %20
  call void (i32, ptr, ...) @log_var(i32 noundef 5, ptr noundef @.str.13)
  br label %24

24:                                               ; preds = %23, %20
  br label %25

25:                                               ; preds = %24
  br label %26

26:                                               ; preds = %25
  br label %27

27:                                               ; preds = %26
  br label %28

28:                                               ; preds = %27
  br label %29

29:                                               ; preds = %28, %12
  store i32 -1, ptr %2, align 4
  store i32 1, ptr %6, align 4
  br label %58

30:                                               ; preds = %1
  %31 = load ptr, ptr %5, align 8
  %32 = call i64 @strtol(ptr noundef %31, ptr noundef null, i32 noundef 8) #5
  %33 = trunc i64 %32 to i32
  store i32 %33, ptr %4, align 4
  %34 = load ptr, ptr %3, align 8
  %35 = getelementptr inbounds nuw %struct.stepd_step_rec_t, ptr %34, i32 0, i32 5
  %36 = getelementptr inbounds nuw %struct.slurm_step_id_msg, ptr %35, i32 0, i32 3
  %37 = load i32, ptr %36, align 8
  %38 = icmp eq i32 %37, -4
  br i1 %38, label %51, label %39

39:                                               ; preds = %30
  %40 = load ptr, ptr %3, align 8
  %41 = getelementptr inbounds nuw %struct.stepd_step_rec_t, ptr %40, i32 0, i32 5
  %42 = getelementptr inbounds nuw %struct.slurm_step_id_msg, ptr %41, i32 0, i32 3
  %43 = load i32, ptr %42, align 8
  %44 = icmp eq i32 %43, -6
  br i1 %44, label %51, label %45

45:                                               ; preds = %39
  %46 = load ptr, ptr %3, align 8
  %47 = getelementptr inbounds nuw %struct.stepd_step_rec_t, ptr %46, i32 0, i32 5
  %48 = getelementptr inbounds nuw %struct.slurm_step_id_msg, ptr %47, i32 0, i32 3
  %49 = load i32, ptr %48, align 8
  %50 = icmp eq i32 %49, -5
  br i1 %50, label %51, label %55

51:                                               ; preds = %45, %39, %30
  %52 = load ptr, ptr %3, align 8
  %53 = getelementptr inbounds nuw %struct.stepd_step_rec_t, ptr %52, i32 0, i32 32
  %54 = load ptr, ptr %53, align 8
  call void @unsetenvp(ptr noundef %54, ptr noundef @.str.12)
  br label %55

55:                                               ; preds = %51, %45
  %56 = load i32, ptr %4, align 4
  %57 = call i32 @umask(i32 noundef %56) #5
  store i32 0, ptr %2, align 4
  store i32 1, ptr %6, align 4
  br label %58

58:                                               ; preds = %55, %29
  call void @llvm.lifetime.end.p0(i64 8, ptr %5) #5
  call void @llvm.lifetime.end.p0(i64 4, ptr %4) #5
  %59 = load i32, ptr %2, align 4
  ret i32 %59
}