; Function Attrs: nounwind uwtable
define dso_local range(i32 -1, 1) i32 @set_umask(ptr noundef readonly captures(none) %0) local_unnamed_addr #0 {
  %2 = getelementptr inbounds nuw i8, ptr %0, i64 280
  %3 = load ptr, ptr %2, align 8
  %4 = tail call ptr @getenvp(ptr noundef %3, ptr noundef nonnull @.str.12) #7
  %.not = icmp eq ptr %4, null
  br i1 %.not, label %5, label %12

5:                                                ; preds = %1
  %6 = getelementptr inbounds nuw i8, ptr %0, i64 128
  %7 = load i32, ptr %6, align 8
  %.not10 = icmp eq i32 %7, -4
  br i1 %.not10, label %21, label %8

8:                                                ; preds = %5
  %9 = tail call i32 @get_log_level() #7
  %10 = icmp sgt i32 %9, 4
  br i1 %10, label %11, label %21

11:                                               ; preds = %8
  tail call void (i32, ptr, ...) @log_var(i32 noundef 5, ptr noundef nonnull @.str.13) #7
  br label %21

12:                                               ; preds = %1
  %13 = tail call i64 @strtol(ptr noundef nonnull captures(none) %4, ptr noundef null, i32 noundef 8) #7
  %14 = trunc i64 %13 to i32
  %15 = getelementptr inbounds nuw i8, ptr %0, i64 128
  %16 = load i32, ptr %15, align 8
  %.off = add i32 %16, 6
  %switch = icmp ult i32 %.off, 3
  br i1 %switch, label %17, label %19

17:                                               ; preds = %12
  %18 = load ptr, ptr %2, align 8
  tail call void @unsetenvp(ptr noundef %18, ptr noundef nonnull @.str.12) #7
  br label %19

19:                                               ; preds = %12, %17
  %20 = tail call i32 @umask(i32 noundef %14) #7
  br label %21

21:                                               ; preds = %5, %11, %8, %19
  %.0 = phi i32 [ 0, %19 ], [ -1, %8 ], [ -1, %11 ], [ -1, %5 ]
  ret i32 %.0
}